; Function Attrs: mustprogress uwtable
define void @_ZNK3gmx12AtomsRemover20removeMarkedElementsEPSt6vectorIfSaIfEE(ptr noundef nonnull readonly align 8 captures(none) dereferenceable(24) %0, ptr noundef %1) local_unnamed_addr #2 align 2 personality ptr @__gxx_personality_v0 {
  %3 = getelementptr inbounds nuw i8, ptr %1, i64 8
  %4 = load ptr, ptr %3, align 8, !tbaa !79
  %5 = load ptr, ptr %1, align 8, !tbaa !82
  %6 = ptrtoint ptr %4 to i64
  %7 = ptrtoint ptr %5 to i64
  %8 = sub i64 %6, %7
  %9 = ashr exact i64 %8, 2
  %10 = getelementptr inbounds nuw i8, ptr %0, i64 8
  %11 = load ptr, ptr %10, align 8, !tbaa !64
  %12 = load ptr, ptr %0, align 8, !tbaa !61
  %13 = ptrtoint ptr %11 to i64
  %14 = ptrtoint ptr %12 to i64
  %15 = sub i64 %13, %14
  %16 = icmp eq i64 %9, %15
  br i1 %16, label %.preheader, label %17

.preheader:                                       ; preds = %2
  %.not14 = icmp eq ptr %11, %12
  br i1 %.not14, label %._crit_edge.thread, label %.lr.ph.preheader

.lr.ph.preheader:                                 ; preds = %.preheader
  %umax = tail call i64 @llvm.umax.i64(i64 %9, i64 1)
  br label %.lr.ph

17:                                               ; preds = %2
  tail call void @_ZN3gmx8internal13assertHandlerEPKcS2_S2_S2_i(ptr noundef nonnull @.str.7, ptr noundef nonnull @.str.8, ptr noundef nonnull @"__PRETTY_FUNCTION__._ZZNK3gmx12AtomsRemover20removeMarkedElementsEPSt6vectorIfSaIfEEENK3$_0clEv", ptr noundef nonnull @.str.1, i32 noundef 254) #17
  unreachable

._crit_edge:                                      ; preds = %34
  %18 = sext i32 %.1 to i64
  %19 = icmp ult i64 %9, %18
  br i1 %19, label %20, label %._crit_edge.thread

20:                                               ; preds = %._crit_edge
  %21 = sub nuw nsw i64 %18, %9
  tail call void @_ZNSt6vectorIfSaIfEE17_M_default_appendEm(ptr noundef nonnull align 8 dereferenceable(24) %1, i64 noundef %21)
  br label %_ZNSt6vectorIfSaIfEE6resizeEm.exit

._crit_edge.thread:                               ; preds = %.preheader, %._crit_edge
  %.011.lcssa16 = phi i64 [ %18, %._crit_edge ], [ 0, %.preheader ]
  %22 = icmp ugt i64 %9, %.011.lcssa16
  br i1 %22, label %23, label %_ZNSt6vectorIfSaIfEE6resizeEm.exit

23:                                               ; preds = %._crit_edge.thread
  %24 = getelementptr inbounds nuw float, ptr %5, i64 %.011.lcssa16
  %.not.i.i = icmp eq ptr %4, %24
  br i1 %.not.i.i, label %_ZNSt6vectorIfSaIfEE6resizeEm.exit, label %25

25:                                               ; preds = %23
  store ptr %24, ptr %3, align 8, !tbaa !79
  br label %_ZNSt6vectorIfSaIfEE6resizeEm.exit

_ZNSt6vectorIfSaIfEE6resizeEm.exit:               ; preds = %20, %._crit_edge.thread, %23, %25
  ret void

.lr.ph:                                           ; preds = %.lr.ph.preheader, %34
  %.013 = phi i64 [ %35, %34 ], [ 0, %.lr.ph.preheader ]
  %.01112 = phi i32 [ %.1, %34 ], [ 0, %.lr.ph.preheader ]
  %26 = getelementptr inbounds nuw i8, ptr %12, i64 %.013
  %27 = load i8, ptr %26, align 1, !tbaa !47
  %.not = icmp eq i8 %27, 0
  br i1 %.not, label %28, label %34

28:                                               ; preds = %.lr.ph
  %29 = getelementptr inbounds nuw float, ptr %5, i64 %.013
  %30 = load float, ptr %29, align 4, !tbaa !40
  %31 = sext i32 %.01112 to i64
  %32 = getelementptr inbounds nuw float, ptr %5, i64 %31
  store float %30, ptr %32, align 4, !tbaa !40
  %33 = add nsw i32 %.01112, 1
  br label %34

34:                                               ; preds = %.lr.ph, %28
  %.1 = phi i32 [ %.01112, %.lr.ph ], [ %33, %28 ]
  %35 = add nuw i64 %.013, 1
  %exitcond.not = icmp eq i64 %35, %umax
  br i1 %exitcond.not, label %._crit_edge, label %.lr.ph, !llvm.loop !83
}